; Function Attrs: nounwind uwtable
define dso_local range(i64 -64, 1) i64 @ZSTD_freeCStream(ptr noundef %0) local_unnamed_addr #1 {
  %2 = icmp eq ptr %0, null
  br i1 %2, label %ZSTD_freeCCtx.exit, label %3

3:                                                ; preds = %1
  %4 = getelementptr inbounds nuw i8, ptr %0, i64 880
  %5 = load i64, ptr %4, align 8
  %.not.i = icmp eq i64 %5, 0
  br i1 %.not.i, label %6, label %ZSTD_freeCCtx.exit

6:                                                ; preds = %3
  %7 = getelementptr inbounds nuw i8, ptr %0, i64 656
  %8 = load ptr, ptr %7, align 8
  %.not.i.i = icmp ugt ptr %8, %0
  br i1 %.not.i.i, label %ZSTD_cwksp_owns_buffer.exit.i, label %9

9:                                                ; preds = %6
  %10 = getelementptr inbounds nuw i8, ptr %0, i64 664
  %11 = load ptr, ptr %10, align 8
  %12 = icmp uge ptr %0, %11
  br label %ZSTD_cwksp_owns_buffer.exit.i

ZSTD_cwksp_owns_buffer.exit.i:                    ; preds = %9, %6
  %.not9.i = phi i1 [ true, %6 ], [ %12, %9 ]
  tail call fastcc void @ZSTD_clearAllDicts(ptr noundef nonnull %0)
  %13 = getelementptr i8, ptr %0, i64 856
  %.val.i.i = load ptr, ptr %13, align 8
  %14 = getelementptr i8, ptr %0, i64 864
  %.val3.i.i = load ptr, ptr %14, align 8
  %15 = load ptr, ptr %7, align 8
  tail call void @llvm.memset.p0.i64(ptr noundef nonnull align 8 dereferenceable(72) %7, i8 0, i64 72, i1 false)
  %.not.i.i.i.i = icmp eq ptr %15, null
  br i1 %.not.i.i.i.i, label %ZSTD_freeCCtxContent.exit.i, label %16

16:                                               ; preds = %ZSTD_cwksp_owns_buffer.exit.i
  %.not4.i.i.i.i = icmp eq ptr %.val.i.i, null
  br i1 %.not4.i.i.i.i, label %18, label %17

17:                                               ; preds = %16
  tail call void %.val.i.i(ptr noundef %.val3.i.i, ptr noundef nonnull %15) #27
  br label %ZSTD_freeCCtxContent.exit.i

18:                                               ; preds = %16
  tail call void @free(ptr noundef nonnull %15) #27
  br label %ZSTD_freeCCtxContent.exit.i

ZSTD_freeCCtxContent.exit.i:                      ; preds = %18, %17, %ZSTD_cwksp_owns_buffer.exit.i
  br i1 %.not9.i, label %19, label %ZSTD_freeCCtx.exit

19:                                               ; preds = %ZSTD_freeCCtxContent.exit.i
  %.val.i = load ptr, ptr %13, align 8
  %.not4.i.i = icmp eq ptr %.val.i, null
  br i1 %.not4.i.i, label %21, label %20

20:                                               ; preds = %19
  %.val10.i = load ptr, ptr %14, align 8
  tail call void %.val.i(ptr noundef %.val10.i, ptr noundef nonnull %0) #27
  br label %ZSTD_freeCCtx.exit

21:                                               ; preds = %19
  tail call void @free(ptr noundef nonnull %0) #27
  br label %ZSTD_freeCCtx.exit

ZSTD_freeCCtx.exit:                               ; preds = %1, %3, %ZSTD_freeCCtxContent.exit.i, %20, %21
  %.0.i = phi i64 [ 0, %1 ], [ -64, %3 ], [ 0, %ZSTD_freeCCtxContent.exit.i ], [ 0, %20 ], [ 0, %21 ]
  ret i64 %.0.i
}